; Function Attrs: nounwind uwtable
define ptr @l_Lake_Toml_RBDict_fold___rarg(ptr noundef %0, ptr noundef %1, ptr noundef readonly captures(none) %2) local_unnamed_addr #0 {
lean_nat_lt.exit:
  %3 = getelementptr inbounds nuw i8, ptr %2, i64 8
  %4 = load ptr, ptr %3, align 8, !tbaa !4
  %5 = getelementptr i8, ptr %4, i64 8
  %.val = load i64, ptr %5, align 8, !tbaa !14
  %.mask = and i64 %.val, 9223372036854775807
  %.not = icmp eq i64 %.mask, 0
  br i1 %.not, label %lean_dec.exit25, label %lean_dec.exit

lean_dec.exit25:                                  ; preds = %lean_nat_lt.exit
  %6 = ptrtoint ptr %0 to i64
  %7 = and i64 %6, 1
  %.not37 = icmp eq i64 %7, 0
  br i1 %.not37, label %8, label %lean_dec.exit24

8:                                                ; preds = %lean_dec.exit25
  %9 = load i32, ptr %0, align 4, !tbaa !8
  %10 = icmp sgt i32 %9, 1
  br i1 %10, label %11, label %13, !prof !13

11:                                               ; preds = %8
  %12 = add nsw i32 %9, -1
  store i32 %12, ptr %0, align 4, !tbaa !8
  br label %lean_dec.exit24

13:                                               ; preds = %8
  %.not.i26 = icmp eq i32 %9, 0
  br i1 %.not.i26, label %lean_dec.exit24, label %14

14:                                               ; preds = %13
  tail call void @lean_dec_ref_cold(ptr noundef nonnull %0) #5
  br label %lean_dec.exit24

lean_dec.exit:                                    ; preds = %lean_nat_lt.exit
  %15 = tail call ptr @l_Array_foldlMUnsafe_fold___at_Lake_Toml_RBDict_fold___spec__1___rarg(ptr noundef %0, ptr noundef nonnull %4, i64 noundef 0, i64 noundef %.mask, ptr noundef %1)
  br label %lean_dec.exit24

lean_dec.exit24:                                  ; preds = %lean_dec.exit25, %11, %13, %14, %lean_dec.exit
  %.0 = phi ptr [ %15, %lean_dec.exit ], [ %1, %14 ], [ %1, %13 ], [ %1, %11 ], [ %1, %lean_dec.exit25 ]
  ret ptr %.0
}